; Function Attrs: mustprogress nofree norecurse nosync nounwind willreturn memory(read, inaccessiblemem: none) uwtable
define noundef range(i64 -288230376151711744, 288230376151711744) i64 @_ZNK19OpenColorIO_v2_5dev10ColorSpace13getNumAliasesEv(ptr noundef nonnull readonly align 8 captures(none) dereferenceable(8) %0) local_unnamed_addr #4 align 2 personality ptr @__gxx_personality_v0 {
  %2 = load ptr, ptr %0, align 8, !tbaa !52
  %3 = getelementptr inbounds nuw i8, ptr %2, i64 160
  %4 = getelementptr inbounds nuw i8, ptr %2, i64 168
  %5 = load ptr, ptr %4, align 8, !tbaa !56
  %6 = load ptr, ptr %3, align 8, !tbaa !55
  %7 = ptrtoint ptr %5 to i64
  %8 = ptrtoint ptr %6 to i64
  %9 = sub i64 %7, %8
  %10 = ashr exact i64 %9, 5
  ret i64 %10
}